(lp0
F0.014286981574111337
aF0.017199288450982862
aF0.006238486463767612
aF0.013329657932264719
aF0.0008316502265752504
aF0.009053473469730622
aF0.007578125445787033
aF0.0014305725012349836
aF0.007232261720708717
aF0.0035065638854379416
aF0.006275942412016101
aF0.0057766975970743725
aF0.013925242906127813
aF0.005518091651997409
aF0.0033040247129461904
aF0.000850403250333901
aF0.012827139487029961
aF0.005716628526538626
aF0.007878719156905075
aF0.005248710819878736
aF0.0017914943748483258
aF0.010681284950264684
aF0.0029746597838464163
aF0.008173758027813238
aF0.003192277300714134
aF0.012853497168525756
aF0.002517588656679342
aF0.014096507457961737
aF0.014212908673518732
aF0.007753001922047002
aF0.0066138697849804804
aF0.002053236328948917
aF0.002587369873586794
aF0.0031250940300585547
aF0.0038195808494669763
aF0.0057052067382540594
aF0.001259731525713746
aF0.0031801137204556
aF0.0012984257795307713
aF0.012750769174426963
aF0.0026809209793622235
aF0.0031596795940029604
aF0.003871714432451811
aF0.0116551586649131
aF0.002257349143582192
aF0.003990920694080563
aF0.002991048063447624
aF0.021925491986141046
aF0.057151902218284756
aF0.0019587473999896103
aF0.0033468032044024045
aF0.0025921497727621826
aF0.0027184448160016837
aF0.028685597084436097
aF0.0007920054198446444
aF0.006948034414536001
aF0.005028799620844796
aF0.0024200847255262167
aF0.060553720882174936
aF0.09465874256622704
aF0.00790546915575409
aF0.0024732087117542716
aF0.0065518802118230204
aF0.062437270720115894
aF0.00824594836570794
aF0.005716350317275214
aF0.0016421998434264745
aF0.009115935858133585
aF0.004763114161023224
aF0.008349851984661654
aF0.02641367784477013
aF0.013437739379781613
aF0.005835845790553178
aF0.0017773156122304987
aF0.0025348522541483428
aF0.004131323247895502
aF0.003298424800062077
aF0.01633872833098714
aF0.0035211709048489615
aF0.016506501509911262
aF0.00938729299352086
aF0.0020037603893473654
aF0.0029687297145988534
aF0.004895281414178004
aF0.015361818459007854
aF0.019774337229069065
aF0.018314648719968598
aF0.006937862307886943
aF0.0021982751179666993
aF0.010900660609672212
aF0.0033743941544561278
aF0.002245453040554802
aF0.02112030547473793
aF0.0032653176760006476
aF0.005123279064198959
aF0.013090537576370026
aF0.005081384129476338
aF0.0027643175707605873
aF0.024325433494485852
aF0.027833747862771777
a.